
tvbgone.elf:     file format elf32-avr

Sections:
Idx Name          Size      VMA       LMA       File off  Algn
  0 .text         00001414  00000000  00000000  00000094  2**1
                  CONTENTS, ALLOC, LOAD, READONLY, CODE
  1 .data         00000002  00800060  00001414  000014a8  2**0
                  CONTENTS, ALLOC, LOAD, DATA
  2 .bss          00000004  00800062  00800062  000014aa  2**0
                  ALLOC
  3 .stab         00002178  00000000  00000000  000014ac  2**2
                  CONTENTS, READONLY, DEBUGGING
  4 .stabstr      00002348  00000000  00000000  00003624  2**0
                  CONTENTS, READONLY, DEBUGGING

Disassembly of section .text:

00000000 <__vectors>:
       0:	cd c8       	rjmp	.-3686   	; 0xfffff19c <__eeprom_end+0xff7ef19c>
       2:	e7 c8       	rjmp	.-3634   	; 0xfffff1d2 <__eeprom_end+0xff7ef1d2>
       4:	e6 c8       	rjmp	.-3636   	; 0xfffff1d2 <__eeprom_end+0xff7ef1d2>
       6:	e5 c8       	rjmp	.-3638   	; 0xfffff1d2 <__eeprom_end+0xff7ef1d2>
       8:	e4 c8       	rjmp	.-3640   	; 0xfffff1d2 <__eeprom_end+0xff7ef1d2>
       a:	e3 c8       	rjmp	.-3642   	; 0xfffff1d2 <__eeprom_end+0xff7ef1d2>
       c:	e2 c8       	rjmp	.-3644   	; 0xfffff1d2 <__eeprom_end+0xff7ef1d2>
       e:	e1 c8       	rjmp	.-3646   	; 0xfffff1d2 <__eeprom_end+0xff7ef1d2>
      10:	e0 c8       	rjmp	.-3648   	; 0xfffff1d2 <__eeprom_end+0xff7ef1d2>
      12:	df c8       	rjmp	.-3650   	; 0xfffff1d2 <__eeprom_end+0xff7ef1d2>
      14:	de c8       	rjmp	.-3652   	; 0xfffff1d2 <__eeprom_end+0xff7ef1d2>
      16:	dd c8       	rjmp	.-3654   	; 0xfffff1d2 <__eeprom_end+0xff7ef1d2>
      18:	dc c8       	rjmp	.-3656   	; 0xfffff1d2 <__eeprom_end+0xff7ef1d2>
      1a:	db c8       	rjmp	.-3658   	; 0xfffff1d2 <__eeprom_end+0xff7ef1d2>
      1c:	da c8       	rjmp	.-3660   	; 0xfffff1d2 <__eeprom_end+0xff7ef1d2>
      1e:	d9 c8       	rjmp	.-3662   	; 0xfffff1d2 <__eeprom_end+0xff7ef1d2>
      20:	d8 c8       	rjmp	.-3664   	; 0xfffff1d2 <__eeprom_end+0xff7ef1d2>

00000022 <code_na004Times>:
      22:	37 00 39 00 37 00 aa 00 37 00 6d 0f 37 00 97 25     7.9.7...7.m.7..%
      32:	38 00 00 00 82 03 c5 01 84 03 e2 00                 8...........

0000003e <code_na004Code>:
      3e:	67 26 03 22 00 a0 00 01 04 92 48 20 80 40 04 12     g&."......H .@..
      4e:	09 2b 3d 00                                         .+=.

00000052 <code_na005Times>:
      52:	58 00 5a 00 58 00 5b 00 58 00 b5 00 58 00 10 23     X.Z.X.[.X...X..#
      62:	b1 00 5b 00                                         ..[.

00000066 <code_na005Code>:
      66:	6f 18 03 52 00 10 92 49 46 33 09 24 94 60           o..R...IF3.$.`

00000074 <code_na009Times>:
      74:	35 00 38 00 35 00 ab 00 35 00 6e 0f 35 00 7f 25     5.8.5...5.n.5..%
      84:	82 03 c3 01 84 03 e2 00                             ........

0000008c <code_na009Code>:
      8c:	67 26 03 74 00 84 90 00 20 80 08 00 00 09 24 92     g&.t.... .....$.
      9c:	40 0a ba 40                                         @..@

000000a0 <code_na000Times>:
      a0:	3c 00 3c 00 3c 00 8c 0a 78 00 3c 00 f0 00 3c 00     <.<.<...x.<...<.

000000b0 <code_na000Code>:
      b0:	67 1a 02 a0 00 e2 20 80 78 88 20 10                 g..... .x. .

000000bc <code_na031Times>:
      bc:	58 00 59 00 58 00 5a 00 58 00 b3 00 58 00 11 23     X.Y.X.Z.X...X..#
      cc:	b1 00 5a 00                                         ..Z.

000000d0 <code_na031Code>:
      d0:	6f 18 03 bc 00 06 12 49 46 32 61 24 94 60           o......IF2a$.`

000000de <code_na021Times>:
      de:	30 00 34 00 30 00 a0 00 30 00 90 01 30 00 1f 09     0.4.0...0...0...
      ee:	1f 03 90 01                                         ....

000000f2 <code_na021Code>:
      f2:	67 26 03 de 00 80 10 40 08 82 08 01 c0 08 20 04     g&.....@...... .
     102:	41 04 00 00                                         A...

00000106 <code_na022Times>:
     106:	35 00 3c 00 35 00 af 00 35 00 6f 11 35 00 ed 24     5.<.5...5.o.5..$
     116:	7c 03 c2 01 7f 03 e1 00                             |.......

0000011e <code_na022Code>:
     11e:	67 26 03 06 01 80 02 40 00 02 40 00 00 01 24 92     g&.....@..@...$.
     12e:	48 0a ba 00                                         H...

00000132 <code_eu000Times>:
     132:	2b 00 2f 00 2b 00 5b 00 2b 00 84 20 58 00 2f 00     +./.+.[.+.. X./.
     142:	85 00 85 00 08 01 5a 00 08 01 5b 00                 ......Z...[.

0000014e <code_eu000Code>:
     14e:	6f 28 03 32 01 a4 08 00 00 00 00 64 2c 40 80 00     o(.2.......d,@..
     15e:	00 00 06 41                                         ...A

00000162 <code_eu001Times>:
     162:	2f 00 09 01 33 00 36 00 33 00 6c 00 33 00 07 01     /...3.6.3.l.3...
     172:	33 00 05 08 33 00 7f 2d 64 00 6d 00                 3...3..-d.m.

0000017e <code_eu001Code>:
     17e:	83 1f 03 62 01 04 92 49 26 35 89 24 9a d6 24 92     ...b...I&5.$..$.
     18e:	48                                                  H

0000018f <code_eu002Times>:
     18f:	2b 00 ce 00 2e 00 cc 00 2e 00 c8 01 2e 00 a0 0d     +...............

0000019f <code_eu002Code>:
     19f:	77 1a 02 8f 01 1a 56 a6 d6 95 a9 90                 w.....V.....

000001ab <code_eu004Times>:
     1ab:	2c 00 2d 00 2c 00 83 00 2c 00 26 1d 5a 01 b0 00     ,.-.,...,.&.Z...
     1bb:	5a 01 b2 00                                         Z...

000001bf <code_eu004Code>:
     1bf:	6b 64 03 ab 01 60 80 00 00 00 08 00 00 00 20 00     kd...`........ .
     1cf:	00 04 12 48 04 12 48 2a 02 00 00 00 00 20 00 00     ...H..H*..... ..
     1df:	00 80 00 00 10 49 20 10 49 20 80                    .....I .I .

000001ea <code_eu005Times>:
     1ea:	18 00 be 00 19 00 50 00 19 00 be 00 19 00 67 10     ......P.......g.
     1fa:	19 00 bf 12                                         ....

000001fe <code_eu005Code>:
     1fe:	67 40 03 ea 01 04 92 52 28 92 8c 44 92 89 45 24     g@.....R(..D..E$
     20e:	53 44 92 52 28 92 8c 44 92 89 45 24 51              SD.R(..D..E$Q

0000021b <code_eu006Times>:
     21b:	35 00 3f 00 35 00 ac 00 35 00 78 11 36 00 00 00     5.?.5...5.x.6...
     22b:	c7 01 d4 01                                         ....

0000022f <code_eu006Code>:
     22f:	67 44 03 1b 02 84 90 00 04 90 00 00 80 00 04 12     gD..............
     23f:	49 2a 12 40 00 12 40 00 02 00 00 10 49 24 b0        I*.@..@.....I$.

0000024e <code_eu007Times>:
     24e:	32 00 36 00 32 00 9f 00 32 00 03 09 46 03 a6 01     2.6.2...2...F...

0000025e <code_eu007Code>:
     25e:	67 34 02 4e 02 d4 00 15 10 25 00 05 44 09 40 01     g4.N.....%..D.@.
     26e:	51 01                                               Q.

00000270 <code_eu008Code>:
     270:	67 26 03 22 00 a0 00 41 04 92 08 24 90 40 00 02     g&."...A...$.@..
     280:	09 2b 3d 00                                         .+=.

00000284 <code_eu011Code>:
     284:	67 26 03 74 00 84 00 48 04 02 01 04 80 09 00 12     g&.t...H........
     294:	40 2a ba 40                                         @*.@

00000298 <code_eu012Times>:
     298:	2e 00 ce 00 2e 00 cb 01 2e 00 77 0d                 ..........w.

000002a4 <code_eu012Code>:
     2a4:	77 1a 02 98 02 05 01 51 81 40 54 40                 w......Q.@T@

000002b0 <code_eu013Times>:
     2b0:	35 00 3b 00 35 00 ab 00 35 00 fe 08 7f 03 c1 01     5.;.5...5.......

000002c0 <code_eu013Code>:
     2c0:	67 58 02 b0 02 d4 55 00 00 40 15 54 00 01 55 56     gX....U..@.T..UV
     2d0:	d4 55 00 00 40 15 54 00 01 55 55                    .U..@.T..UU

000002db <code_eu015Times>:
     2db:	35 00 36 00 35 00 9c 00 35 00 ee 09 53 03 a9 01     5.6.5...5...S...
     2eb:	55 03 a8 01                                         U...

000002ef <code_eu015Code>:
     2ef:	67 88 03 db 02 60 82 08 24 10 41 00 12 40 04 80     g....`..$.A..@..
     2ff:	09 2a 02 08 20 90 41 04 00 49 00 12 00 24 a8 08     .*.. .A..I...$..
     30f:	20 82 41 04 10 01 24 00 48 00 92 a0 20 82 09 04      .A...$.H... ...
     31f:	10 40 04 90 01 20 02 48                             .@... .H

00000327 <code_eu016Times>:
     327:	1c 00 5c 00 1c 00 d5 00 1c 00 d6 00 1c 00 d3 0a     ..\.............

00000337 <code_eu016Code>:
     337:	77 22 02 27 03 68 08 20 00 ea 02 08 00 10           w".'.h. ......

00000345 <code_eu017Times>:
     345:	0f 00 4c 03 10 00 2d 02 10 00 4c 03 10 00 68 14     ..L...-...L...h.

00000355 <code_eu017Code>:
     355:	77 18 02 45 03 1a 9a 9b 9a 9a 99                    w..E.......

00000360 <code_eu018Code>:
     360:	67 26 03 22 00 a0 02 48 04 90 01 20 12 40 04 80     g&."...H... .@..
     370:	09 2b 3d 00                                         .+=.

00000374 <code_eu019Times>:
     374:	32 00 36 00 32 00 9e 00 32 00 a2 01 32 00 8b 09     2.6.2...2...2...
     384:	4b 03 a2 01                                         K...

00000388 <code_eu019Code>:
     388:	67 26 03 74 03 80 80 00 08 12 40 01 c0 40 00 04     g&.t......@..@..
     398:	09 20 00 00                                         . ..

0000039c <code_eu020Times>:
     39c:	30 00 2d 01 30 00 8b 02 30 00 e9 03 30 00 b9 0b     0.-.0...0...0...

000003ac <code_eu020Code>:
     3ac:	6f 22 02 9c 03 22 20 00 01 c8 88 00 00 40           o"..." ......@

000003ba <code_eu021Code>:
     3ba:	67 26 03 74 00 84 80 00 20 82 49 00 02 00 04 90     g&.t.... .I.....
     3ca:	49 2a ba 40                                         I*.@

000003ce <code_eu022Code>:
     3ce:	67 26 03 22 00 a4 80 41 00 12 08 24 90 40 00 02     g&."...A...$.@..
     3de:	09 2b 3d 00                                         .+=.

000003e2 <code_eu024Code>:
     3e2:	67 26 03 22 00 a0 02 48 04 90 01 20 00 40 04 92     g&."...H... .@..
     3f2:	09 2b 3d 00                                         .+=.

000003f6 <code_eu025Times>:
     3f6:	31 00 34 00 31 00 66 00 31 00 fa 00 31 00 fc 00     1.4.1.f.1...1...
     406:	31 00 49 09 31 00 e9 2e 64 00 34 00 64 00 66 00     1.I.1...d.4.d.f.

00000416 <code_eu025Code>:
     416:	7f 15 03 f6 03 47 00 23 3c 01 59 e0 04              .....G.#<.Y..

00000423 <code_eu026Times>:
     423:	0e 00 eb 01 0e 00 e7 02 0e 00 3e 13                 ..........>.

0000042f <code_eu026Code>:
     42f:	67 18 02 23 04 55 40 42 55 40 41                    g..#.U@BU@A

0000043a <code_eu027Code>:
     43a:	67 26 03 22 00 a0 82 08 24 10 41 04 10 01 20 82     g&."....$.A... .
     44a:	48 0b 3d 00                                         H.=.

0000044e <code_eu028Times>:
     44e:	2f 00 0b 01 32 00 37 00 32 00 6e 00 32 00 09 01     /...2.7.2.n.2...
     45e:	32 00 07 08 32 00 55 2f 64 00 39 00                 2...2.U/d.9.

0000046a <code_eu028Code>:
     46a:	83 1f 03 4e 04 04 92 49 26 34 72 24 9a d1 c8 92     ...N...I&4r$....
     47a:	48                                                  H

0000047b <code_eu029Times>:
     47b:	32 00 32 00 32 00 63 00 32 00 fb 00 32 00 fc 00     2.2.2.c.2...2...
     48b:	32 00 a5 05 32 00 06 2b 66 00 31 00 66 00 62 00     2...2..+f.1.f.b.

0000049b <code_eu029Code>:
     49b:	73 2e 03 7b 04 47 00 00 00 00 04 64 62 00 e0 00     s..{.G.....db...
     4ab:	2b 23 10 07 00 00 80                                +#.....

000004b2 <code_eu030Code>:
     4b2:	67 26 03 22 00 a0 10 00 04 82 49 20 02 00 04 90     g&."......I ....
     4c2:	49 2b 3d 00                                         I+=.

000004c6 <code_eu031Times>:
     4c6:	35 00 35 00 35 00 a0 00 35 00 a1 06 46 03 a6 01     5.5.5...5...F...

000004d6 <code_eu031Code>:
     4d6:	67 34 02 c6 04 d5 50 15 11 65 54 05 44 59 55 01     g4....P..eT.DYU.
     4e6:	51 15                                               Q.

000004e8 <code_eu032Times>:
     4e8:	31 00 cd 00 31 00 ce 00 31 00 c8 01 31 00 6a 0e     1...1...1...1.j.

000004f8 <code_eu032Code>:
     4f8:	77 1a 02 e8 04 1a 56 a5 d6 95 a9 40                 w.....V....@

00000504 <code_eu033Times>:
     504:	30 00 96 00 32 00 95 00 32 00 5b 01 32 00 78 0b     0...2...2.[.2.x.

00000514 <code_eu033Code>:
     514:	67 0e 02 04 05 2a 5d a9 60                          g....*].`

0000051d <code_eu034Code>:
     51d:	67 26 03 22 00 a0 02 40 04 90 09 20 02 00 04 90     g&."...@... ....
     52d:	49 2b 3d 00                                         I+=.

00000531 <code_eu036Code>:
     531:	67 26 03 22 00 a4 00 49 00 92 00 20 02 00 04 90     g&."...I... ....
     541:	49 2b 3d 00                                         I+=.

00000545 <code_eu037Times>:
     545:	0e 00 eb 01 0e 00 e7 02 0e 00 3a 14                 ..........:.

00000551 <code_eu037Code>:
     551:	67 18 02 45 05 45 50 02 45 50 01                    g..E.EP.EP.

0000055c <code_eu038Times>:
     55c:	03 00 ea 03 03 00 d7 05 03 00 f3 0b                 ............

00000568 <code_eu038Code>:
     568:	00 0b 02 5c 05 05 60 54                             ...\..`T

00000570 <code_eu039Times>:
     570:	0d 00 bd 01 0d 00 a2 02 0d 00 a3 02 0d 00 e7 11     ................

00000580 <code_eu039Code>:
     580:	63 18 02 70 05 6a 82 83 aa 82 81                    c..p.j.....

0000058b <code_eu040Times>:
     58b:	55 00 59 00 55 00 08 01 55 00 4a 0d 5b 01 5e 01     U.Y.U...U.J.[.^.
     59b:	5c 01 5e 01                                         \.^.

0000059f <code_eu040Code>:
     59f:	6f 34 03 8b 05 60 90 40 20 80 40 20 90 41 2a 02     o4...`.@ .@ .A*.
     5af:	41 00 82 01 00 82 41 04 80                          A.....A..

000005b8 <code_eu041Times>:
     5b8:	2e 00 2c 01 31 00 2a 01 31 00 88 02 31 00 e5 03     ..,.1.*.1...1...
     5c8:	31 00 f0 0b                                         1...

000005cc <code_eu041Code>:
     5cc:	77 1c 03 b8 05 0c b2 ca 49 13 0b 2c b2 92 44 b0     w.......I..,..D.

000005dc <code_eu042Code>:
     5dc:	67 26 03 74 00 80 00 00 24 92 09 00 82 00 04 10     g&.t....$.......
     5ec:	49 2a ba 00                                         I*..

000005f0 <code_eu043Times>:
     5f0:	0d 04 78 10 10 04 00 00                             ..x.....

000005f8 <code_eu043Code>:
     5f8:	5f 02 02 f0 05 10                                   _.....

000005fe <code_eu044Code>:
     5fe:	67 26 03 22 00 a0 02 01 04 90 48 20 00 00 04 92     g&."......H ....
     60e:	49 2b 3d 00                                         I+=.

00000612 <code_eu045Times>:
     612:	98 00 d7 01 9a 00 9c 00 9a 00 d5 01 9a 00 83 0b     ................

00000622 <code_eu045Code>:
     622:	5f 0a 02 12 06 16 e5 90                             _.......

0000062a <code_eu046Times>:
     62a:	0f 00 ed 01 10 00 ed 01 10 00 ba 02 10 00 86 05     ................

0000063a <code_eu046Code>:
     63a:	73 10 02 2a 06 16 ab 56 a9                          s..*...V.

00000643 <code_eu047Times>:
     643:	03 00 f0 01 03 00 e9 02 03 00 d0 05                 ............

0000064f <code_eu047Code>:
     64f:	00 11 02 43 06 41 24 12 41 00                       ...C.A$.A.

00000659 <code_eu048Code>:
     659:	67 26 03 74 00 80 00 00 24 82 49 04 80 40 00 12     g&.t....$.I..@..
     669:	09 2a ba 00                                         .*..

0000066d <code_eu049Times>:
     66d:	37 00 37 00 37 00 a7 00 37 00 e1 11 37 00 22 25     7.7.7...7...7."%
     67d:	c0 01 bd 01 c2 01 bc 01                             ........

00000685 <code_eu049Code>:
     685:	67 28 03 6d 06 80 92 00 00 92 00 00 10 40 04 82     g(.m.........@..
     695:	09 2a 97 48                                         .*.H

00000699 <code_eu050Times>:
     699:	5b 00 58 00 5b 00 0b 01 5b 00 25 0e 69 01 66 01     [.X.[...[.%.i.f.
     6a9:	69 01 67 01                                         i.g.

000006ad <code_eu050Code>:
     6ad:	77 30 03 99 06 60 00 00 00 12 49 24 92 42 80 00     w0...`....I$.B..
     6bd:	00 00 12 49 24 92 40                                ...I$.@

000006c4 <code_eu051Times>:
     6c4:	54 00 58 00 54 00 05 01 54 00 20 0d 5b 01 5b 01     T.X.T...T. .[.[.
     6d4:	5b 01 5c 01                                         [.\.

000006d8 <code_eu051Code>:
     6d8:	67 34 03 c4 06 60 82 00 20 80 41 04 90 41 2a 02     g4...`.. .A..A*.
     6e8:	08 00 82 01 04 12 41 04 80                          ......A..

000006f1 <code_eu052Times>:
     6f1:	10 00 46 03 11 00 2e 02 11 00 47 03 11 00 b8 18     ..F.......G.....

00000701 <code_eu052Code>:
     701:	7f 18 02 f1 06 1a 9a 9b 9a 9a 99                    ...........

0000070c <code_eu053Code>:
     70c:	73 10 02 2a 06 26 ab 66 aa                          s..*.&.f.

00000715 <code_eu054Times>:
     715:	31 00 35 00 31 00 68 00 31 00 06 01 31 00 08 01     1.5.1.h.1...1...
     725:	31 00 5e 1f 64 00 67 00                             1.^.d.g.

0000072d <code_eu054Code>:
     72d:	7f 0e 03 15 07 40 1a 23 00 d0 80                    .....@.#...

00000738 <code_eu055Code>:
     738:	67 26 03 74 00 80 00 00 20 92 49 00 02 40 04 90     g&.t.... .I..@..
     748:	09 2a ba 00                                         .*..

0000074c <code_eu056Times>:
     74c:	70 00 6b 00 71 00 6b 00 a5 02 ce 0a                 p.k.q.k.....

00000758 <code_eu056Code>:
     758:	67 04 02 4c 07 26                                   g..L.&

0000075e <code_eu058Code>:
     75e:	67 26 03 74 00 80 00 00 24 10 49 00 82 00 04 10     g&.t....$.I.....
     76e:	49 2a ba 00                                         I*..

00000772 <code_eu059Times>:
     772:	36 01 65 02 36 01 66 02 6e 02 78 20                 6.e.6.f.n.x 

0000077e <code_eu059Code>:
     77e:	5f 04 02 72 07 26                                   _..r.&

00000784 <code_eu060Times>:
     784:	32 00 9e 00 35 00 33 00 35 00 9c 00 35 00 84 08     2...5.3.5...5...

00000794 <code_eu060Code>:
     794:	67 22 02 84 07 25 59 9a 5a e9 56 66 96 a0           g"...%Y.Z.Vf..

000007a2 <code_eu061Code>:
     7a2:	6f 18 03 52 00 10 92 54 24 b3 09 25 42 48           o..R...T$..%BH

000007b0 <code_eu062Code>:
     7b0:	67 22 02 84 07 25 99 9a 5a e9 66 66 96 a0           g"...%..Z.ff..

000007be <code_eu063Code>:
     7be:	67 26 03 74 00 80 00 00 24 90 41 00 82 00 04 10     g&.t....$.A.....
     7ce:	49 2a ba 00                                         I*..

000007d2 <code_eu064Times>:
     7d2:	2f 00 0b 01 32 00 37 00 32 00 6e 00 32 00 09 01     /...2.7.2.n.2...
     7e2:	32 00 07 08 32 00 55 2f 64 00 39 00 64 00 70 00     2...2.U/d.9.d.p.

000007f2 <code_eu064Code>:
     7f2:	83 1d 03 d2 07 04 92 49 26 32 51 cb d6 4a 39 72     .......I&2Q..J9r

00000802 <code_eu065Times>:
     802:	2f 00 0b 01 32 00 37 00 32 00 6e 00 32 00 09 01     /...2.7.2.n.2...
     812:	32 00 07 08 32 00 55 2f 64 00 70 00                 2...2.U/d.p.

0000081e <code_eu065Code>:
     81e:	83 1f 03 02 08 04 92 49 26 32 4a 38 9a c9 28 e2     .......I&2J8..(.
     82e:	48                                                  H

0000082f <code_eu066Code>:
     82f:	67 28 03 6d 06 84 82 00 04 82 00 00 82 00 04 10     g(.m............
     83f:	49 2a 87 41                                         I*.A

00000843 <code_eu067Times>:
     843:	5e 00 d9 01 5e 00 d8 02 66 00 65 06                 ^...^...f.e.

0000084f <code_eu067Code>:
     84f:	67 0c 02 43 08 41 24 12                             g..C.A$.

00000857 <code_eu068Times>:
     857:	31 00 07 01 32 00 36 00 32 00 6c 00 32 00 07 01     1...2.6.2.l.2...
     867:	32 00 ed 07 32 00 d7 27 64 00 6e 00                 2...2..'d.n.

00000873 <code_eu068Code>:
     873:	67 1f 03 57 08 04 92 49 26 34 49 38 9a d1 24 e2     g..W...I&4I8..$.
     883:	48                                                  H

00000884 <code_eu069Times>:
     884:	04 00 f3 01 04 00 ee 02 04 00 87 13                 ............

00000890 <code_eu069Code>:
     890:	00 17 02 84 08 05 54 06 05 54 04                    ......T..T.

0000089b <code_eu070Code>:
     89b:	00 17 02 84 08 14 54 06 14 54 04                    ......T..T.

000008a6 <code_eu071Times>:
     8a6:	0e 00 eb 01 0e 00 e7 02 0e 00 46 11                 ..........F.

000008b2 <code_eu071Code>:
     8b2:	67 18 02 a6 08 45 44 56 45 44 55                    g....EDVEDU

000008bd <code_eu072Times>:
     8bd:	05 00 38 02 05 00 56 03 05 00 87 13                 ..8...V.....

000008c9 <code_eu072Code>:
     8c9:	00 17 02 bd 08 55 45 46 55 45 44                    .....UEFUED

000008d4 <code_eu073Code>:
     8d4:	73 10 02 2a 06 19 57 59 55                          s..*..WYU

000008dd <code_eu074Code>:
     8dd:	6f 1a 03 bc 00 04 92 49 28 c6 49 24 92 51 80        o......I(.I$.Q.

000008ec <code_eu075Times>:
     8ec:	06 00 36 02 06 00 53 03 06 00 62 15                 ..6...S...b.

000008f8 <code_eu075Code>:
     8f8:	00 17 02 ec 08 05 45 46 05 45 44                    ......EF.ED

00000903 <code_eu076Times>:
     903:	0e 00 4b 03 10 00 2b 02 10 00 49 03 10 00 2f 13     ..K...+...I.../.

00000913 <code_eu076Code>:
     913:	67 18 02 03 09 2a 9a 9b aa 9a 9a                    g....*.....

0000091e <code_eu077Code>:
     91e:	83 1f 03 4e 04 04 92 49 26 32 51 c8 9a c9 47 22     ...N...I&2Q...G"
     92e:	48                                                  H

0000092f <code_eu078Times>:
     92f:	06 00 9d 03 06 00 3b 05 06 00 32 08 06 00 e3 0a     ......;...2.....

0000093f <code_eu078Code>:
     93f:	00 0c 02 2f 09 90 0d 00                             .../....

00000947 <code_eu079Times>:
     947:	35 00 3b 00 35 00 aa 00 35 00 07 11 7c 03 c0 01     5.;.5...5...|...
     957:	7d 03 c0 01                                         }...

0000095b <code_eu079Code>:
     95b:	67 44 03 47 09 60 00 00 24 80 09 04 92 00 00 00     gD.G.`..$.......
     96b:	49 2a 00 00 00 92 00 24 12 48 00 00 01 24 80        I*.....$.H...$.

0000097a <code_eu080Times>:
     97a:	37 00 39 00 37 00 a7 00 37 00 40 11 7f 03 c0 01     7.9.7...7.@.....
     98a:	81 03 bf 01                                         ....

0000098e <code_eu080Code>:
     98e:	67 44 03 7a 09 60 00 00 20 10 09 04 02 01 00 90     gD.z.`.. .......
     99e:	48 2a 00 00 00 80 40 24 10 08 04 02 41 20 80        H*....@$....A .

000009ad <code_eu081Times>:
     9ad:	1a 00 b9 00 1b 00 50 00 1b 00 b9 00 1b 00 99 10     ......P.........

000009bd <code_eu081Code>:
     9bd:	67 50 02 ad 09 1a 5a 65 67 9a 65 9a 9b 9a 5a 65     gP....Zeg.e...Ze
     9cd:	67 9a 65 9a 9b 9a 5a 65 65                          g.e...Zee

000009d6 <code_eu082Times>:
     9d6:	33 00 38 00 33 00 a2 00 33 00 1a 0b 50 03 ae 01     3.8.3...3...P...
     9e6:	52 03 ad 01                                         R...

000009ea <code_eu082Code>:
     9ea:	63 44 03 d6 09 60 82 08 24 10 41 04 82 40 00 10     cD...`..$.A..@..
     9fa:	09 2a 02 08 20 90 41 04 12 09 00 00 40 24 80        .*.. .A.....@$.

00000a09 <code_eu083Times>:
     a09:	10 00 2f 02 10 00 4f 03 10 00 0c 17 11 00 2f 02     ../...O......./.
     a19:	11 00 4f 03                                         ..O.

00000a1d <code_eu083Code>:
     a1d:	77 18 03 09 0a 0e 38 21 82 26 20 82 48 23           w.....8!.& .H#

00000a2b <code_eu084Times>:
     a2b:	10 00 e4 01 10 00 e2 02 10 00 e3 02 10 00 bb 12     ................

00000a3b <code_eu084Code>:
     a3b:	67 18 02 2b 0a 6a a0 03 aa a0 01                    g..+.j.....

00000a46 <code_eu085Times>:
     a46:	30 00 34 00 30 00 a0 00 30 00 90 01 30 00 48 08     0.4.0...0...0.H.
     a56:	1f 03 90 01                                         ....

00000a5a <code_eu085Code>:
     a5a:	67 26 03 46 0a 84 82 40 08 92 48 01 c2 41 20 04     g&.F...@..H..A .
     a6a:	49 24 00 40                                         I$.@

00000a6e <code_eu086Times>:
     a6e:	10 00 53 03 11 00 2a 02 11 00 52 03 11 00 53 03     ..S...*...R...S.
     a7e:	11 00 ef 12                                         ....

00000a82 <code_eu086Code>:
     a82:	77 18 03 6e 0a 45 86 5b 05 c6 5b 05 b0 42           w..n.E.[..[..B

00000a90 <code_eu087Times>:
     a90:	0e 00 eb 01 0e 00 e7 02 0e 00 06 14                 ............

00000a9c <code_eu087Code>:
     a9c:	67 18 02 90 0a 55 50 02 55 50 01                    g....UP.UP.

00000aa7 <code_eu088Times>:
     aa7:	0e 00 eb 01 0e 00 e7 02 0e 00 0a 13                 ............

00000ab3 <code_eu088Code>:
     ab3:	67 18 02 a7 0a 45 54 42 45 54 41                    g....ETBETA

00000abe <code_eu089Code>:
     abe:	67 26 03 de 00 84 10 40 08 82 08 01 c2 08 20 04     g&.....@...... .
     ace:	41 04 00 40                                         A..@

00000ad2 <code_eu090Times>:
     ad2:	03 00 09 00 03 00 13 00 03 00 1d 00 03 00 27 00     ..............'.
     ae2:	03 00 f0 26                                         ...&

00000ae6 <code_eu090Code>:
     ae6:	00 1d 03 d2 0a 60 00 88 00 02 e3 00 04 40 00 16     .....`.......@..

00000af6 <code_eu091Times>:
     af6:	0f 00 8a 00 0f 00 be 01 0f 00 5d 02 0f 00 a5 19     ..........].....

00000b06 <code_eu091Code>:
     b06:	67 1e 02 f6 0a 80 01 00 2e 00 04 00 a0              g............

00000b13 <code_eu092Times>:
     b13:	30 00 32 00 30 00 94 00 30 00 95 00 30 00 90 05     0.2.0...0...0...

00000b23 <code_eu092Code>:
     b23:	63 16 02 13 0b 48 80 0e 22 00 10                    c....H.."..

00000b2e <code_eu093Times>:
     b2e:	57 00 7f 02 58 00 13 01 58 00 7f 02                 W...X...X...

00000b3a <code_eu093Code>:
     b3a:	6f 0b 02 2e 0b 15 9a 94                             o.......

00000b42 <code_eu094Times>:
     b42:	03 00 08 00 03 00 12 00 03 00 18 00 03 00 26 00     ..............&.
     b52:	03 00 f1 26                                         ...&

00000b56 <code_eu094Code>:
     b56:	00 1d 03 42 0b 60 80 88 00 00 e3 04 04 40 00 06     ...B.`.......@..

00000b66 <code_eu095Code>:
     b66:	73 10 02 2a 06 2a ab 6a aa                          s..*.*.j.

00000b6f <code_eu096Times>:
     b6f:	0d 00 60 02 0e 00 8d 00 0e 00 28 01 0e 00 c3 01     ..`.......(.....
     b7f:	0e 00 5e 02 0e 00 60 02 0e 00 3f 18                 ..^...`...?.

00000b8b <code_eu096Code>:
     b8b:	67 1e 03 6f 0b 04 94 4b 24 95 35 24 a2 59 24 a8     g..o...K$.5$.Y$.
     b9b:	40                                                  @

00000b9c <code_eu097Code>:
     b9c:	73 10 02 2a 06 19 ab 59 a9                          s..*...Y.

00000ba5 <code_eu098Times>:
     ba5:	03 00 08 00 03 00 12 00 03 00 1c 00 03 00 bb 31     ...............1

00000bb5 <code_eu098Code>:
     bb5:	00 1b 02 a5 0b 80 01 00 b8 55 10 08                 .........U..

00000bc1 <code_eu099Times>:
     bc1:	2e 00 35 00 2e 00 6a 00 2e 00 04 01 2e 00 de 05     ..5...j.........
     bd1:	2e 00 d2 2a 5d 00 35 00 5d 00 6a 00                 ...*].5.].j.

00000bdd <code_eu099Code>:
     bdd:	6f 2e 03 c1 0b 46 80 00 00 00 03 44 52 00 00 0c     o....F.....DR...
     bed:	22 22 90 00 00 60 80                                ""...`.

00000bf4 <code_eu100Code>:
     bf4:	00 1b 02 a5 0b 80 04 00 b8 55 40 08                 .........U@.

00000c00 <code_eu101Times>:
     c00:	0e 00 eb 01 0e 00 e7 02 0e 00 42 12                 ..........B.

00000c0c <code_eu101Code>:
     c0c:	67 18 02 00 0c 55 50 06 55 50 05                    g....UP.UP.

00000c17 <code_eu102Code>:
     c17:	67 18 02 90 0a 45 54 02 45 54 01                    g....ET.ET.

00000c22 <code_eu103Times>:
     c22:	2c 00 2f 03 2d 00 10 02 2d 00 2f 03 2d 00 88 13     ,./.-...-./.-...

00000c32 <code_eu103Code>:
     c32:	73 18 02 22 0c 29 9a 9b a9 9a 9a                    s..".).....

00000c3d <code_eu104Times>:
     c3d:	0e 00 eb 01 0e 00 e7 02 0e 00 f9 16                 ............

00000c49 <code_eu104Code>:
     c49:	67 18 02 3d 0c 44 40 02 44 40 01                    g..=.D@.D@.

00000c54 <code_eu105Code>:
     c54:	67 26 03 74 00 84 10 00 20 90 01 00 80 40 04 12     g&.t.... ....@..
     c64:	09 2a ba 40                                         .*.@

00000c68 <code_eu106Times>:
     c68:	30 00 f6 00 32 00 2f 00 32 00 5e 00 32 00 f5 00     0...2./.2.^.2...
     c78:	32 00 d0 05 32 00 da 2a 64 00 2f 00 64 00 5e 00     2...2..*d./.d.^.

00000c88 <code_eu106Code>:
     c88:	67 3b 03 68 0c 0b 12 49 24 92 49 8d 1c 89 27 fc     g;.h...I$.I...'.
     c98:	ab 47 22 49 ff 2a d1 c8 92 7f c9 00                 .G"I.*......

00000ca4 <code_eu107Times>:
     ca4:	10 00 4f 03 10 00 0c 17 11 00 2f 02 11 00 4e 03     ..O......./...N.
     cb4:	11 00 4f 03                                         ..O.

00000cb8 <code_eu107Code>:
     cb8:	77 18 03 a4 0c 62 08 a0 8a 19 04 08 40 83           w....b......@.

00000cc6 <code_eu108Times>:
     cc6:	0e 00 eb 01 0e 00 e7 02 0e 00 0e 12                 ............

00000cd2 <code_eu108Code>:
     cd2:	67 18 02 c6 0c 45 54 16 45 54 15                    g....ET.ET.

00000cdd <code_eu109Times>:
     cdd:	18 00 b9 00 1b 00 4e 00 1b 00 b7 00 1b 00 06 06     ......N.........

00000ced <code_eu109Code>:
     ced:	67 16 02 dd 0c 19 95 5e 66 55 50                    g......^fUP

00000cf8 <code_eu110Times>:
     cf8:	38 00 37 00 38 00 a8 00 38 00 f2 12 bf 01 c5 01     8.7.8...8.......
     d08:	c0 01 c5 01                                         ....

00000d0c <code_eu110Code>:
     d0c:	67 44 03 f8 0c 64 10 00 04 10 00 00 80 00 04 12     gD...d..........
     d1c:	49 2a 10 40 00 10 40 00 02 00 00 10 49 24 90        I*.@..@.....I$.

00000d2b <code_eu111Times>:
     d2b:	31 00 34 00 31 00 fa 00 31 00 fc 00 31 00 49 09     1.4.1...1...1.I.
     d3b:	31 00 e9 2e 64 00 34 00 64 00 66 00                 1...d.4.d.f.

00000d47 <code_eu111Code>:
     d47:	7f 15 03 2b 0d 22 80 1a 18 01 10 c0 02              ...+.".......

00000d54 <code_eu112Times>:
     d54:	37 00 37 00 37 00 a7 00 37 00 9f 13 37 00 22 25     7.7.7...7...7."%
     d64:	c0 01 bd 01 c2 01 bc 01                             ........

00000d6c <code_eu112Code>:
     d6c:	67 28 03 54 0d 80 02 00 00 02 00 04 92 00 00 00     g(.T............
     d7c:	49 2a 97 48                                         I*.H

00000d80 <code_eu113Code>:
     d80:	7f 0e 03 15 07 46 80 23 34 00 80                    .....F.#4..

00000d8b <code_eu114Code>:
     d8b:	83 1f 03 4e 04 04 92 49 26 34 71 44 9a d1 c5 12     ...N...I&4qD....
     d9b:	48                                                  H

00000d9c <code_eu115Times>:
     d9c:	30 00 62 00 30 00 c4 00 61 00 44 03 8b 01 84 01     0.b.0...a.D.....
     dac:	8b 07 85 01                                         ....

00000db0 <code_eu115Code>:
     db0:	43 4d 03 9c 0d 84 92 01 24 12 00 04 80 08 09 92     CM......$.......
     dc0:	48 04 90 48 00 12 00 20 26 49 20 12 41 20 00 48     H..H... &I .A .H
     dd0:	00 82                                               ..

00000dd2 <code_eu116Times>:
     dd2:	03 00 09 00 03 00 1f 00 03 00 2a 00 03 00 cd 2a     ..........*....*

00000de2 <code_eu116Code>:
     de2:	00 1d 02 d2 0d 80 01 00 2e 00 04 00 80              .............

00000def <code_eu117Times>:
     def:	31 00 35 00 31 00 06 01 31 00 08 01 31 00 5e 1f     1.5.1...1...1.^.
     dff:	64 00 67 00                                         d.g.

00000e03 <code_eu117Code>:
     e03:	7f 0e 03 ef 0d 22 00 1a 10 00 40                    ....."....@

00000e0e <code_eu118Times>:
     e0e:	2c 00 2f 03 2d 00 10 02 2d 00 2f 03 2d 00 69 12     ,./.-...-./.-.i.

00000e1e <code_eu118Code>:
     e1e:	73 18 02 0e 0e 2a 9a 9b aa 9a 9a                    s....*.....

00000e29 <code_eu119Times>:
     e29:	0e 00 eb 01 0e 00 e7 02 0e 00 36 15                 ..........6.

00000e35 <code_eu119Code>:
     e35:	67 18 02 29 0e 44 44 02 44 44 01                    g..).DD.DD.

00000e40 <code_eu120Times>:
     e40:	13 00 4e 00 15 00 1b 00 15 00 4d 00 15 00 c9 0e     ..N.......M.....
     e50:	16 00 00 00                                         ....

00000e54 <code_eu120Code>:
     e54:	67 52 03 40 0e 09 24 92 49 12 4a 24 92 49 24 92     gR.@..$.I.J$.I$.
     e64:	49 24 94 89 69 24 92 49 22 49 44 92 49 24 92 49     I$..i$.I"ID.I$.I
     e74:	24 92 91 30                                         $..0

00000e78 <code_eu121Code>:
     e78:	67 34 03 c4 06 64 00 09 24 00 09 24 00 09 2a 10     g4...d..$..$..*.
     e88:	00 24 90 00 24 90 00 24 90                          .$..$..$.

00000e91 <code_eu122Code>:
     e91:	67 52 03 40 0e 04 a4 92 49 22 49 48 92 49 24 92     gR.@....I"IH.I$.
     ea1:	49 24 94 89 68 94 92 49 24 49 29 12 49 24 92 49     I$..h..I$I).I$.I
     eb1:	24 92 91 30                                         $..0

00000eb5 <code_eu123Times>:
     eb5:	0d 00 ea 01 0d 00 e5 02 0d 00 e6 02 0d 00 43 15     ..............C.

00000ec5 <code_eu123Code>:
     ec5:	63 18 02 b5 0e 6a a0 0b aa a0 09                    c....j.....

00000ed0 <code_eu124Times>:
     ed0:	32 00 36 00 32 00 9e 00 32 00 97 01 32 00 69 08     2.6.2...2...2.i.
     ee0:	4b 03 97 01                                         K...

00000ee4 <code_eu124Code>:
     ee4:	67 26 03 d0 0e 80 10 40 08 92 48 01 c0 08 20 04     g&.....@..H... .
     ef4:	49 24 00 00                                         I$..

00000ef8 <code_eu125Times>:
     ef8:	37 00 38 00 37 00 a8 00 37 00 59 0f 38 00 00 00     7.8.7...7.Y.8...
     f08:	72 03 c6 01 74 03 c4 01                             r...t...

00000f10 <code_eu125Code>:
     f10:	67 44 03 f8 0e 84 80 00 20 82 49 00 02 00 04 90     gD...... .I.....
     f20:	49 2a 92 00 00 82 09 24 00 08 00 12 41 24 b0        I*.....$....A$.

00000f2f <code_eu126Code>:
     f2f:	67 26 03 22 00 a0 00 00 04 92 49 20 00 00 04 92     g&."......I ....
     f3f:	49 2b 3d 00                                         I+=.

00000f43 <code_eu127Code>:
     f43:	67 18 02 90 0a 44 40 56 44 40 55                    g....D@VD@U

00000f4e <code_eu128Times>:
     f4e:	98 00 d7 01 9a 00 9c 00 9a 00 d5 01 9a 00 0e 03     ................
     f5e:	9a 00 83 0b                                         ....

00000f62 <code_eu128Code>:
     f62:	5f 08 03 4e 0f 05 c4 59                             _..N...Y

00000f6a <code_eu129Times>:
     f6a:	32 00 32 00 32 00 63 00 32 00 fb 00 32 00 fc 00     2.2.2.c.2...2...
     f7a:	32 00 a9 05 32 00 06 2b 66 00 31 00 66 00 62 00     2...2..+f.1.f.b.

00000f8a <code_eu129Code>:
     f8a:	67 2d 03 6a 0f 47 00 00 00 00 00 8c 8c 40 03 f1     g-.j.G.......@..
     f9a:	eb 23 10 00 fc 74                                   .#...t

00000fa0 <code_eu130Code>:
     fa0:	67 2d 03 6a 0f 47 00 00 00 00 00 8c 8c 40 03 e3     g-.j.G.......@..
     fb0:	eb 23 10 00 f8 f4                                   .#....

00000fb6 <code_eu131Times>:
     fb6:	0e 00 eb 01 0e 00 e7 02 0e 00 4a 10                 ..........J.

00000fc2 <code_eu131Code>:
     fc2:	67 18 02 b6 0f 55 55 42 55 55 41                    g....UUBUUA

00000fcd <code_eu132Code>:
     fcd:	00 17 02 84 08 05 50 06 05 50 04                    ......P..P.

00000fd8 <code_eu133Code>:
     fd8:	67 18 02 a6 08 55 54 12 55 54 11                    g....UT.UT.

00000fe3 <code_eu134Times>:
     fe3:	0d 00 ea 01 0d 00 e5 02 0d 00 e6 02 0d 00 33 17     ..............3.

00000ff3 <code_eu134Code>:
     ff3:	63 18 02 e3 0f 40 0a 83 80 0a 81                    c....@.....

00000ffe <code_eu135Times>:
     ffe:	06 00 36 02 06 00 53 03 06 00 44 14                 ..6...S...D.

0000100a <code_eu135Code>:
    100a:	00 17 02 fe 0f 54 45 46 54 45 44                    .....TEFTED

00001015 <code_eu136Code>:
    1015:	67 26 03 22 00 a0 00 00 04 92 49 24 00 00 00 92     g&."......I$....
    1025:	49 2b 3d 00                                         I+=.

00001029 <code_eu137Times>:
    1029:	56 00 5b 00 57 00 5a 00 57 00 b4 00 57 00 a4 22     V.[.W.Z.W...W.."
    1039:	58 00 00 00 ae 00 5a 00                             X.....Z.

00001041 <code_eu137Code>:
    1041:	6f 16 03 29 10 14 95 4a 35 9a 4a a5 1b 00           o..)...J5.J...

0000104f <code_eu138Times>:
    104f:	04 00 0c 04 04 00 e3 05 04 00 bd 0b                 ............

0000105b <code_eu138Code>:
    105b:	00 0b 02 4f 10 05 60 54                             ...O..`T

00001063 <code_eu139Times>:
    1063:	00 00 00 00 0e 00 8d 00 0e 00 c4 01 0e 00 5f 02     .............._.
    1073:	0e 00 a6 18                                         ....

00001077 <code_eu139Code>:
    1077:	00 1e 03 63 10 64 92 4a 24 92 e3 24 92 51 24 96     ...c.d.J$..$.Q$.
	...

00001088 <EUpowerCodes>:
    1088:	4e 01 7e 01 9f 01 b0 00 bf 01 fe 01 2f 02 5e 02     N.~........./.^.
    1098:	70 02 66 00 3e 00 84 02 a4 02 c0 02 f2 00 ef 02     p.f.>...........
    10a8:	37 03 55 03 60 03 88 03 ac 03 ba 03 ce 03 1e 01     7.U.`...........
    10b8:	e2 03 16 04 2f 04 3a 04 6a 04 9b 04 b2 04 d6 04     ..../.:.j.......
    10c8:	f8 04 14 05 1d 05 31 05 51 05 68 05 80 05 9f 05     ......1.Q.h.....
    10d8:	cc 05 dc 05 f8 05 fe 05 22 06 3a 06 4f 06 59 06     ........".:.O.Y.
    10e8:	85 06 ad 06 d8 06 01 07 0c 07 2d 07 38 07 58 07     ..........-.8.X.
    10f8:	5e 07 7e 07 94 07 a2 07 b0 07 be 07 f2 07 1e 08     ^.~.............
    1108:	2f 08 4f 08 73 08 90 08 9b 08 b2 08 c9 08 d4 08     /.O.s...........
    1118:	dd 08 f8 08 13 09 1e 09 3f 09 5b 09 8e 09 bd 09     ........?.[.....
    1128:	ea 09 1d 0a 3b 0a 5a 0a 82 0a 9c 0a b3 0a be 0a     ....;.Z.........
    1138:	e6 0a 06 0b 23 0b 3a 0b 56 0b 66 0b 8b 0b 9c 0b     ....#.:.V.f.....
    1148:	b5 0b dd 0b f4 0b 0c 0c 17 0c 32 0c 49 0c 54 0c     ..........2.I.T.
    1158:	88 0c b8 0c d2 0c ed 0c 0c 0d 47 0d 6c 0d 80 0d     ..........G.l...
    1168:	8b 0d b0 0d e2 0d 03 0e 1e 0e 35 0e 54 0e 78 0e     ..........5.T.x.
    1178:	91 0e c5 0e e4 0e 10 0f 2f 0f 43 0f 62 0f 8a 0f     ......../.C.b...
    1188:	a0 0f c2 0f cd 0f d8 0f f3 0f 0a 10 15 10 41 10     ..............A.
    1198:	5b 10 77 10                                         [.w.

0000119c <__ctors_end>:
    119c:	11 24       	eor	r1, r1
    119e:	1f be       	out	0x3f, r1	; 63
    11a0:	cf e5       	ldi	r28, 0x5F	; 95
    11a2:	d2 e0       	ldi	r29, 0x02	; 2
    11a4:	de bf       	out	0x3e, r29	; 62
    11a6:	cd bf       	out	0x3d, r28	; 61

000011a8 <__do_copy_data>:
    11a8:	10 e0       	ldi	r17, 0x00	; 0
    11aa:	a0 e6       	ldi	r26, 0x60	; 96
    11ac:	b0 e0       	ldi	r27, 0x00	; 0
    11ae:	e4 e1       	ldi	r30, 0x14	; 20
    11b0:	f4 e1       	ldi	r31, 0x14	; 20
    11b2:	02 c0       	rjmp	.+4      	; 0x11b8 <.do_copy_data_start>

000011b4 <.do_copy_data_loop>:
    11b4:	05 90       	lpm	r0, Z+
    11b6:	0d 92       	st	X+, r0

000011b8 <.do_copy_data_start>:
    11b8:	a2 36       	cpi	r26, 0x62	; 98
    11ba:	b1 07       	cpc	r27, r17
    11bc:	d9 f7       	brne	.-10     	; 0x11b4 <.do_copy_data_loop>

000011be <__do_clear_bss>:
    11be:	10 e0       	ldi	r17, 0x00	; 0
    11c0:	a2 e6       	ldi	r26, 0x62	; 98
    11c2:	b0 e0       	ldi	r27, 0x00	; 0
    11c4:	01 c0       	rjmp	.+2      	; 0x11c8 <.do_clear_bss_start>

000011c6 <.do_clear_bss_loop>:
    11c6:	1d 92       	st	X+, r1

000011c8 <.do_clear_bss_start>:
    11c8:	a6 36       	cpi	r26, 0x66	; 102
    11ca:	b1 07       	cpc	r27, r17
    11cc:	e1 f7       	brne	.-8      	; 0x11c6 <.do_clear_bss_loop>
    11ce:	93 d0       	rcall	.+294    	; 0x12f6 <main>
    11d0:	1f c1       	rjmp	.+574    	; 0x1410 <_exit>

000011d2 <__bad_interrupt>:
    11d2:	16 c7       	rjmp	.+3628   	; 0x2000 <__data_load_end+0xbea>

000011d4 <read_bits>:
uint8_t bits_r=0;
PGM_P code_ptr;

// we cant read more than 8 bits at a time so dont try!
uint8_t read_bits(uint8_t count)
{
    11d4:	0f 93       	push	r16
    11d6:	1f 93       	push	r17
    11d8:	08 2f       	mov	r16, r24
    11da:	a0 91 64 00 	lds	r26, 0x0064
    11de:	b0 91 65 00 	lds	r27, 0x0065
    11e2:	f0 91 63 00 	lds	r31, 0x0063
    11e6:	e0 91 62 00 	lds	r30, 0x0062
    11ea:	10 e0       	ldi	r17, 0x00	; 0
    11ec:	40 e0       	ldi	r20, 0x00	; 0
    11ee:	50 e0       	ldi	r21, 0x00	; 0
      bitsleft_r = 8;
    }
    // remove one bit
    bitsleft_r--;
    // and shift it off of the end of 'bits_r'
    tmp |= (((bits_r >> (bitsleft_r)) & 1) << (count-1-i));
    11f0:	68 2f       	mov	r22, r24
    11f2:	70 e0       	ldi	r23, 0x00	; 0
    11f4:	61 50       	subi	r22, 0x01	; 1
    11f6:	70 40       	sbci	r23, 0x00	; 0
    11f8:	1c c0       	rjmp	.+56     	; 0x1232 <read_bits+0x5e>
  uint8_t tmp=0;
  
  // we need to read back count bytes
  for (i=0; i<count; i++) {
    // check if the 8-bit buffer we have has run out
    if (bitsleft_r == 0) {
    11fa:	ee 23       	and	r30, r30
    11fc:	21 f4       	brne	.+8      	; 0x1206 <read_bits+0x32>
      // in which case we read a new byte in
      bits_r = pgm_read_byte(code_ptr++);
    11fe:	fd 01       	movw	r30, r26
    1200:	11 96       	adiw	r26, 0x01	; 1
    1202:	f4 91       	lpm	r31, Z+
    1204:	e8 e0       	ldi	r30, 0x08	; 8
      // and reset the buffer size (8 bites in a byte)
      bitsleft_r = 8;
    }
    // remove one bit
    bitsleft_r--;
    1206:	e1 50       	subi	r30, 0x01	; 1
    // and shift it off of the end of 'bits_r'
    tmp |= (((bits_r >> (bitsleft_r)) & 1) << (count-1-i));
    1208:	8f 2f       	mov	r24, r31
    120a:	90 e0       	ldi	r25, 0x00	; 0
    120c:	0e 2e       	mov	r0, r30
    120e:	02 c0       	rjmp	.+4      	; 0x1214 <read_bits+0x40>
    1210:	95 95       	asr	r25
    1212:	87 95       	ror	r24
    1214:	0a 94       	dec	r0
    1216:	e2 f7       	brpl	.-8      	; 0x1210 <read_bits+0x3c>
    1218:	81 70       	andi	r24, 0x01	; 1
    121a:	90 70       	andi	r25, 0x00	; 0
    121c:	9b 01       	movw	r18, r22
    121e:	24 1b       	sub	r18, r20
    1220:	35 0b       	sbc	r19, r21
    1222:	02 c0       	rjmp	.+4      	; 0x1228 <read_bits+0x54>
    1224:	88 0f       	add	r24, r24
    1226:	99 1f       	adc	r25, r25
    1228:	2a 95       	dec	r18
    122a:	e2 f7       	brpl	.-8      	; 0x1224 <read_bits+0x50>
    122c:	18 2b       	or	r17, r24
    122e:	4f 5f       	subi	r20, 0xFF	; 255
    1230:	5f 4f       	sbci	r21, 0xFF	; 255
{
  uint8_t i;
  uint8_t tmp=0;
  
  // we need to read back count bytes
  for (i=0; i<count; i++) {
    1232:	40 17       	cp	r20, r16
    1234:	10 f3       	brcs	.-60     	; 0x11fa <read_bits+0x26>
    1236:	b0 93 65 00 	sts	0x0065, r27
    123a:	a0 93 64 00 	sts	0x0064, r26
    123e:	f0 93 63 00 	sts	0x0063, r31
    1242:	e0 93 62 00 	sts	0x0062, r30
    // and shift it off of the end of 'bits_r'
    tmp |= (((bits_r >> (bitsleft_r)) & 1) << (count-1-i));
  }
  // return the selected bits in the LSB part of tmp
  return tmp; 
}
    1246:	81 2f       	mov	r24, r17
    1248:	1f 91       	pop	r17
    124a:	0f 91       	pop	r16
    124c:	08 95       	ret

0000124e <delay_ten_us>:

// This function delays the specified number of 10 microseconds
// it is 'hardcoded' and is calibrated by adjusting DELAY_CNT 
// in main.h Unless you are changing the crystal from 8mhz, dont
// mess with this.
void delay_ten_us(uint16_t us) {
    124e:	08 c0       	rjmp	.+16     	; 0x1260 <delay_ten_us+0x12>
  uint8_t timer;
  while (us != 0) {
    1250:	20 e0       	ldi	r18, 0x00	; 0
    // for 8MHz we want to delay 80 cycles per 10 microseconds
    // this code is tweaked to give about that amount.
    for (timer=0; timer <= DELAY_CNT; timer++) {
      NOP;
    1252:	00 00       	nop
      NOP;
    1254:	00 00       	nop
void delay_ten_us(uint16_t us) {
  uint8_t timer;
  while (us != 0) {
    // for 8MHz we want to delay 80 cycles per 10 microseconds
    // this code is tweaked to give about that amount.
    for (timer=0; timer <= DELAY_CNT; timer++) {
    1256:	2f 5f       	subi	r18, 0xFF	; 255
    1258:	2c 30       	cpi	r18, 0x0C	; 12
    125a:	d9 f7       	brne	.-10     	; 0x1252 <delay_ten_us+0x4>
      NOP;
      NOP;
    }
    NOP;
    125c:	00 00       	nop
    us--;
    125e:	01 97       	sbiw	r24, 0x01	; 1
// it is 'hardcoded' and is calibrated by adjusting DELAY_CNT 
// in main.h Unless you are changing the crystal from 8mhz, dont
// mess with this.
void delay_ten_us(uint16_t us) {
  uint8_t timer;
  while (us != 0) {
    1260:	00 97       	sbiw	r24, 0x00	; 0
    1262:	b1 f7       	brne	.-20     	; 0x1250 <delay_ten_us+0x2>
      NOP;
    }
    NOP;
    us--;
  }
}
    1264:	08 95       	ret

00001266 <tvbgone_sleep>:
/****************************** SLEEP FUNCTIONS ********/

void tvbgone_sleep( void )
{
  // Shut down everything and put the CPU to sleep
  TCCR0A = 0;           // turn off frequency generator (should be off already)
    1266:	10 be       	out	0x30, r1	; 48
  TCCR0B = 0;           // turn off frequency generator (should be off already)
    1268:	13 be       	out	0x33, r1	; 51
  PORTB |= _BV(IRLED);     // turn off IR LED
    126a:	c2 9a       	sbi	0x18, 2	; 24

  wdt_disable();           // turn off the watchdog (since we want to sleep
    126c:	88 e1       	ldi	r24, 0x18	; 24
    126e:	0f b6       	in	r0, 0x3f	; 63
    1270:	f8 94       	cli
    1272:	81 bd       	out	0x21, r24	; 33
    1274:	11 bc       	out	0x21, r1	; 33
    1276:	0f be       	out	0x3f, r0	; 63
  delay_ten_us(1000);      // wait 10 millisec
    1278:	88 ee       	ldi	r24, 0xE8	; 232
    127a:	93 e0       	ldi	r25, 0x03	; 3
    127c:	e8 df       	rcall	.-48     	; 0x124e <delay_ten_us>

  MCUCR = _BV(SM1) |  _BV(SE);    // power down mode,  SE enables Sleep Modes
    127e:	80 e3       	ldi	r24, 0x30	; 48
    1280:	85 bf       	out	0x35, r24	; 53
  sleep_cpu();                    // put CPU into Power Down Sleep Mode
    1282:	88 95       	sleep
}
    1284:	08 95       	ret

00001286 <xmitCodeElement>:

/* This function is the 'workhorse' of transmitting IR codes.
   Given the on and off times, it turns on the PWM output on and off
   to generate one 'pair' from a long code. Each code has ~50 pairs! */
void xmitCodeElement(uint16_t ontime, uint16_t offtime, uint8_t PWM_code )
{
    1286:	cf 93       	push	r28
    1288:	df 93       	push	r29
    128a:	9c 01       	movw	r18, r24
    128c:	eb 01       	movw	r28, r22
  // start Timer0 outputting the carrier frequency to IR emitters on and OC0A 
  // (PB0, pin 5)
  TCNT0 = 0; // reset the timers so they are aligned
    128e:	12 be       	out	0x32, r1	; 50
  TIFR0 = 0;  // clean out the timer flags
    1290:	18 be       	out	0x38, r1	; 56

  if(PWM_code) {
    1292:	44 23       	and	r20, r20
    1294:	29 f0       	breq	.+10     	; 0x12a0 <xmitCodeElement+0x1a>
    // 99% of codes are PWM codes, they are pulses of a carrier frequecy
    // Usually the carrier is around 38KHz, and we generate that with PWM
    // timer 0
    TCCR0A =_BV(COM0A0) | _BV(WGM01);          // set up timer 0
    1296:	82 e4       	ldi	r24, 0x42	; 66
    1298:	80 bf       	out	0x30, r24	; 48
    TCCR0B = _BV(CS00);
    129a:	81 e0       	ldi	r24, 0x01	; 1
    129c:	83 bf       	out	0x33, r24	; 51
    129e:	01 c0       	rjmp	.+2      	; 0x12a2 <xmitCodeElement+0x1c>
  } else {
    // However some codes dont use PWM in which case we just turn the IR
    // LED on for the period of time.
    PORTB &= ~_BV(IRLED);
    12a0:	c2 98       	cbi	0x18, 2	; 24
  }

  // Now we wait, allowing the PWM hardware to pulse out the carrier 
  // frequency for the specified 'on' time
  delay_ten_us(ontime);
    12a2:	c9 01       	movw	r24, r18
    12a4:	d4 df       	rcall	.-88     	; 0x124e <delay_ten_us>
  
  // Now we have to turn it off so disable the PWM output
  TCCR0A = 0;
    12a6:	10 be       	out	0x30, r1	; 48
  TCCR0B = 0;
    12a8:	13 be       	out	0x33, r1	; 51
  // And make sure that the IR LED is off too (since the PWM may have 
  // been stopped while the LED is on!)
  PORTB |= _BV(IRLED);           // turn off IR LED
    12aa:	c2 9a       	sbi	0x18, 2	; 24

  // Now we wait for the specified 'off' time
  delay_ten_us(offtime);
    12ac:	ce 01       	movw	r24, r28
    12ae:	cf df       	rcall	.-98     	; 0x124e <delay_ten_us>
}
    12b0:	df 91       	pop	r29
    12b2:	cf 91       	pop	r28
    12b4:	08 95       	ret

000012b6 <quickflashLED>:
   TODO
  PORTB &= ~_BV(LED);   // turn on visible LED at PB0 by pulling pin to ground
  delay_ten_us(3000);   // 30 millisec delay
  PORTB |= _BV(LED);    // turn off visible LED at PB0 by pulling pin to +3V
  */
}
    12b6:	08 95       	ret

000012b8 <quickflashLEDx>:

// This function just flashes the visible LED a couple times, used to
// tell the user what region is selected
void quickflashLEDx( uint8_t x ) {
    12b8:	1f 93       	push	r17
    12ba:	18 2f       	mov	r17, r24
    12bc:	04 c0       	rjmp	.+8      	; 0x12c6 <quickflashLEDx+0xe>
  quickflashLED();
  while(--x) {
  	wdt_reset();
    12be:	a8 95       	wdr
	delay_ten_us(15000);     // 150 millisec delay between flahes
    12c0:	88 e9       	ldi	r24, 0x98	; 152
    12c2:	9a e3       	ldi	r25, 0x3A	; 58
    12c4:	c4 df       	rcall	.-120    	; 0x124e <delay_ten_us>

// This function just flashes the visible LED a couple times, used to
// tell the user what region is selected
void quickflashLEDx( uint8_t x ) {
  quickflashLED();
  while(--x) {
    12c6:	11 50       	subi	r17, 0x01	; 1
    12c8:	d1 f7       	brne	.-12     	; 0x12be <quickflashLEDx+0x6>
  	wdt_reset();
	delay_ten_us(15000);     // 150 millisec delay between flahes
	quickflashLED();
  }
  wdt_reset();                // kick the dog
    12ca:	a8 95       	wdr
}
    12cc:	1f 91       	pop	r17
    12ce:	08 95       	ret

000012d0 <flashslowLEDx>:

// This is like the above but way slower, used for when the tvbgone
// crashes and wants to warn the user
void flashslowLEDx( uint8_t num_blinks )
{
    12d0:	0f 93       	push	r16
    12d2:	1f 93       	push	r17
    12d4:	08 2f       	mov	r16, r24
    12d6:	10 e0       	ldi	r17, 0x00	; 0
    12d8:	09 c0       	rjmp	.+18     	; 0x12ec <flashslowLEDx+0x1c>
  uint8_t i;
  for(i=0;i<num_blinks;i++)
    {
      // turn on visible LED at PB0 by pulling pin to ground
      //PORTB &= ~_BV(LED);     TODO
      delay_ten_us(50000);         // 500 millisec delay
    12da:	80 e5       	ldi	r24, 0x50	; 80
    12dc:	93 ec       	ldi	r25, 0xC3	; 195
    12de:	b7 df       	rcall	.-146    	; 0x124e <delay_ten_us>
      wdt_reset();                 // kick the dog
    12e0:	a8 95       	wdr
      // turn off visible LED at PB0 by pulling pin to +3V
      //PORTB |= _BV(LED);          TODO
      delay_ten_us(50000);	   // 500 millisec delay
    12e2:	80 e5       	ldi	r24, 0x50	; 80
    12e4:	93 ec       	ldi	r25, 0xC3	; 195
    12e6:	b3 df       	rcall	.-154    	; 0x124e <delay_ten_us>
      wdt_reset();                 // kick the dog
    12e8:	a8 95       	wdr
// This is like the above but way slower, used for when the tvbgone
// crashes and wants to warn the user
void flashslowLEDx( uint8_t num_blinks )
{
  uint8_t i;
  for(i=0;i<num_blinks;i++)
    12ea:	1f 5f       	subi	r17, 0xFF	; 255
    12ec:	10 17       	cp	r17, r16
    12ee:	a8 f3       	brcs	.-22     	; 0x12da <flashslowLEDx+0xa>
      // turn off visible LED at PB0 by pulling pin to +3V
      //PORTB |= _BV(LED);          TODO
      delay_ten_us(50000);	   // 500 millisec delay
      wdt_reset();                 // kick the dog
    }
}
    12f0:	1f 91       	pop	r17
    12f2:	0f 91       	pop	r16
    12f4:	08 95       	ret

000012f6 <main>:
that index into another table in ROM that actually stores the on/off times
      const PGM_P time_ptr = (PGM_P)pgm_read_word(code_ptr);
*/


int main(void) {
    12f6:	6f 92       	push	r6
    12f8:	7f 92       	push	r7
    12fa:	8f 92       	push	r8
    12fc:	9f 92       	push	r9
    12fe:	af 92       	push	r10
    1300:	bf 92       	push	r11
    1302:	cf 92       	push	r12
    1304:	df 92       	push	r13
    1306:	ef 92       	push	r14
    1308:	ff 92       	push	r15
    130a:	0f 93       	push	r16
    130c:	1f 93       	push	r17
    130e:	cf 93       	push	r28
    1310:	df 93       	push	r29

#if (DEBUG == 1)
  DDRA = _BV(PA6); // DEBUG output
#endif

  PORTA = 0x00;
    1312:	1b ba       	out	0x1b, r1	; 27

  TCCR1A = 0;		   // Turn off PWM/freq gen, should be off already
    1314:	1f bc       	out	0x2f, r1	; 47
  TCCR1B = 0;		   // Turn off PWM/freq gen, should be off already
    1316:	1e bc       	out	0x2e, r1	; 46
  TCCR0A = 0;
    1318:	10 be       	out	0x30, r1	; 48
  TCCR0B = 0;
    131a:	13 be       	out	0x33, r1	; 51

  i = MCUSR;                     // Save reset reason
    131c:	94 b7       	in	r25, 0x34	; 52
  MCUSR = 0;                     // clear watchdog flag
    131e:	14 be       	out	0x34, r1	; 52
  WDTCSR = _BV(WDCE) | _BV(WDE);  // enable WDT disable
    1320:	88 e1       	ldi	r24, 0x18	; 24
    1322:	81 bd       	out	0x21, r24	; 33
  WDTCSR = 0;                     // disable WDT while we setup
    1324:	11 bc       	out	0x21, r1	; 33

  DDRB = _BV(IRLED);   // set the visible and IR LED pins to outputs
    1326:	84 e0       	ldi	r24, 0x04	; 4
    1328:	87 bb       	out	0x17, r24	; 23
  PORTB = _BV(IRLED) |            // IR LED is off when pin is high
    132a:	86 e0       	ldi	r24, 0x06	; 6
    132c:	88 bb       	out	0x18, r24	; 24
          _BV(REGIONSWITCH);     // Turn on pullup on region switch pin
  
  DEBUGP(putstring_nl("Hello!"));

  PORTA &=~ _BV(6); // LEDS are active low.
    132e:	de 98       	cbi	0x1b, 6	; 27

  // check the reset flags
  if (i & _BV(BORF)) {    // Brownout
    1330:	92 ff       	sbrs	r25, 2
    1332:	02 c0       	rjmp	.+4      	; 0x1338 <main+0x42>
    // Flash out an error and go to sleep
    flashslowLEDx(2);	
    1334:	82 e0       	ldi	r24, 0x02	; 2
    1336:	cc df       	rcall	.-104    	; 0x12d0 <flashslowLEDx>
    //    tvbgone_sleep();  
  }

  delay_ten_us(5000);            // Let everything settle for a bit
    1338:	88 e8       	ldi	r24, 0x88	; 136
    133a:	93 e1       	ldi	r25, 0x13	; 19
    133c:	88 df       	rcall	.-240    	; 0x124e <delay_ten_us>
  }
  region = EU;
    */

  // Tell the user what region we're in  - 3 is US 4 is EU
  quickflashLEDx(3+region);
    133e:	83 e0       	ldi	r24, 0x03	; 3
    1340:	bb df       	rcall	.-138    	; 0x12b8 <quickflashLEDx>
  
  // Starting execution loop
  delay_ten_us(25000);
    1342:	88 ea       	ldi	r24, 0xA8	; 168
    1344:	91 e6       	ldi	r25, 0x61	; 97
    1346:	83 df       	rcall	.-250    	; 0x124e <delay_ten_us>

  // turn on watchdog timer immediately, this protects against
  // a 'stuck' system by resetting it
  wdt_enable(WDTO_8S); // 1 second long timeout
    1348:	29 e2       	ldi	r18, 0x29	; 41
    134a:	88 e1       	ldi	r24, 0x18	; 24
    134c:	90 e0       	ldi	r25, 0x00	; 0
    134e:	0f b6       	in	r0, 0x3f	; 63
    1350:	f8 94       	cli
    1352:	a8 95       	wdr
    1354:	81 bd       	out	0x21, r24	; 33
    1356:	0f be       	out	0x3f, r0	; 63
    1358:	21 bd       	out	0x21, r18	; 33

  do {	//Execute the code at least once.  If Loop is on, execute forever.

    // We may have different number of codes in either database
    if (region == US) {
      j = num_NAcodes;
    135a:	80 90 60 00 	lds	r8, 0x0060
    135e:	00 e0       	ldi	r16, 0x00	; 0
    1360:	99 24       	eor	r9, r9
    1362:	93 94       	inc	r9
      }
      if (ledIndex < 0) {
	ledIndex = 0;
	ledDir = 1;
      }      
      DDRA = _BV(PA6) | (1<<ledIndex);	
    1364:	81 e0       	ldi	r24, 0x01	; 1
    1366:	68 2e       	mov	r6, r24
    1368:	71 2c       	mov	r7, r1

  do {	//Execute the code at least once.  If Loop is on, execute forever.

    // We may have different number of codes in either database
    if (region == US) {
      j = num_NAcodes;
    136a:	c8 e8       	ldi	r28, 0x88	; 136
    136c:	d0 e1       	ldi	r29, 0x10	; 16
    136e:	dd 24       	eor	r13, r13
    1370:	4b c0       	rjmp	.+150    	; 0x1408 <main+0x112>
    }

    // for every POWER code in our collection
    for(i=0 ; i < j; i++) {   

      ledIndex += ledDir;
    1372:	09 0d       	add	r16, r9
      if (ledIndex >= 6) {
    1374:	06 30       	cpi	r16, 0x06	; 6
    1376:	18 f0       	brcs	.+6      	; 0x137e <main+0x88>
    1378:	05 e0       	ldi	r16, 0x05	; 5
    137a:	99 24       	eor	r9, r9
    137c:	9a 94       	dec	r9
      }
      if (ledIndex < 0) {
	ledIndex = 0;
	ledDir = 1;
      }      
      DDRA = _BV(PA6) | (1<<ledIndex);	
    137e:	c3 01       	movw	r24, r6
    1380:	00 2e       	mov	r0, r16
    1382:	02 c0       	rjmp	.+4      	; 0x1388 <main+0x92>
    1384:	88 0f       	add	r24, r24
    1386:	99 1f       	adc	r25, r25
    1388:	0a 94       	dec	r0
    138a:	e2 f7       	brpl	.-8      	; 0x1384 <main+0x8e>
    138c:	80 64       	ori	r24, 0x40	; 64
    138e:	8a bb       	out	0x1a, r24	; 26

      // print out the code # we are about to transmit
      DEBUGP(putstring("\n\r\n\rCode #: "); putnum_ud(i));

      //To keep Watchdog from resetting in middle of code.
      wdt_reset();
    1390:	a8 95       	wdr

      // point to next POWER code, from the right database
      if (region == US) {
	code_ptr = (PGM_P)pgm_read_word(NApowerCodes+i);  
    1392:	fe 01       	movw	r30, r28
    1394:	85 91       	lpm	r24, Z+
    1396:	94 91       	lpm	r25, Z+

      // print out the address in ROM memory we're reading
      DEBUGP(putstring("\n\rAddr: "); putnum_uh(code_ptr));
      
      // Read the carrier frequency from the first byte of code structure
      const uint8_t freq = pgm_read_byte(code_ptr++);
    1398:	9c 01       	movw	r18, r24
    139a:	2f 5f       	subi	r18, 0xFF	; 255
    139c:	3f 4f       	sbci	r19, 0xFF	; 255
    139e:	fc 01       	movw	r30, r24
    13a0:	c4 90       	lpm	r12, Z+
      // set OCR for Timer1 to output this POWER code's carrier frequency
      OCR0A = freq; 
    13a2:	c6 be       	out	0x36, r12	; 54
      // Print out the frequency of the carrier and the PWM settings
      DEBUGP(putstring("\n\rOCR1: "); putnum_ud(freq););
      DEBUGP(uint16_t x = (freq+1) * 2; putstring("\n\rFreq: "); putnum_ud(F_CPU/x););
      
      // Get the number of pairs, the second byte from the code struct
      const uint8_t numpairs = pgm_read_byte(code_ptr++);
    13a4:	a9 01       	movw	r20, r18
    13a6:	4f 5f       	subi	r20, 0xFF	; 255
    13a8:	5f 4f       	sbci	r21, 0xFF	; 255
    13aa:	f9 01       	movw	r30, r18
    13ac:	a4 90       	lpm	r10, Z+
      DEBUGP(putstring("\n\rOn/off pairs: "); putnum_ud(numpairs));

      // Get the number of bits we use to index into the timer table
      // This is the third byte of the structure
      const uint8_t bitcompression = pgm_read_byte(code_ptr++);
    13ae:	fa 01       	movw	r30, r20
    13b0:	b4 90       	lpm	r11, Z+
    13b2:	4f 5f       	subi	r20, 0xFF	; 255
    13b4:	5f 4f       	sbci	r21, 0xFF	; 255
      DEBUGP(putstring("\n\rCompression: "); putnum_ud(bitcompression));

      // Get pointer (address in memory) to pulse-times table
      // The address is 16-bits (2 byte, 1 word)
      const PGM_P time_ptr = (PGM_P)pgm_read_word(code_ptr);
    13b6:	fa 01       	movw	r30, r20
    13b8:	e5 90       	lpm	r14, Z+
    13ba:	f4 90       	lpm	r15, Z+
      code_ptr+=2;
    13bc:	05 96       	adiw	r24, 0x05	; 5
    13be:	90 93 65 00 	sts	0x0065, r25
    13c2:	80 93 64 00 	sts	0x0064, r24
    13c6:	10 e0       	ldi	r17, 0x00	; 0
    13c8:	16 c0       	rjmp	.+44     	; 0x13f6 <main+0x100>
	uint8_t ti;
	
	// Read the next 'n' bits as indicated by the compression variable
	// The multiply by 4 because there are 2 timing numbers per pair
	// and each timing number is one word long, so 4 bytes total!
	ti = (read_bits(bitcompression)) * 4;
    13ca:	8b 2d       	mov	r24, r11
    13cc:	03 df       	rcall	.-506    	; 0x11d4 <read_bits>

	// read the onTime and offTime from the program memory
	ontime = pgm_read_word(time_ptr+ti);  // read word 1 - ontime
    13ce:	88 0f       	add	r24, r24
    13d0:	88 0f       	add	r24, r24
    13d2:	90 e0       	ldi	r25, 0x00	; 0
    13d4:	f7 01       	movw	r30, r14
    13d6:	e8 0f       	add	r30, r24
    13d8:	f9 1f       	adc	r31, r25
    13da:	25 91       	lpm	r18, Z+
    13dc:	34 91       	lpm	r19, Z+
	offtime = pgm_read_word(time_ptr+ti+2);  // read word 2 - offtime
    13de:	fc 01       	movw	r30, r24
    13e0:	32 96       	adiw	r30, 0x02	; 2
    13e2:	ee 0d       	add	r30, r14
    13e4:	ff 1d       	adc	r31, r15
    13e6:	65 91       	lpm	r22, Z+
    13e8:	74 91       	lpm	r23, Z+

	// transmit this codeElement (ontime and offtime)
	xmitCodeElement(ontime, offtime, (freq!=0));  
    13ea:	40 e0       	ldi	r20, 0x00	; 0
    13ec:	c1 10       	cpse	r12, r1
    13ee:	41 e0       	ldi	r20, 0x01	; 1
    13f0:	c9 01       	movw	r24, r18
    13f2:	49 df       	rcall	.-366    	; 0x1286 <xmitCodeElement>
	DEBUGP(putstring("\t"); putnum_ud(offtime));
	} 
      */

      // For EACH pair in this code....
      for (uint8_t k=0; k<numpairs; k++) {
    13f4:	1f 5f       	subi	r17, 0xFF	; 255
    13f6:	1a 15       	cp	r17, r10
    13f8:	40 f3       	brcs	.-48     	; 0x13ca <main+0xd4>
	xmitCodeElement(ontime, offtime, (freq!=0));  
      } 
      
      //Flush remaining bits, so that next code starts
      //with a fresh set of 8 bits.
      bitsleft_r=0;	
    13fa:	10 92 62 00 	sts	0x0062, r1

      // delay 250 milliseconds before transmitting next POWER code
      delay_ten_us(25000);
    13fe:	88 ea       	ldi	r24, 0xA8	; 168
    1400:	91 e6       	ldi	r25, 0x61	; 97
    1402:	25 df       	rcall	.-438    	; 0x124e <delay_ten_us>
    } else {
      j = num_EUcodes;
    }

    // for every POWER code in our collection
    for(i=0 ; i < j; i++) {   
    1404:	d3 94       	inc	r13
    1406:	22 96       	adiw	r28, 0x02	; 2
    1408:	d8 14       	cp	r13, r8
    140a:	08 f0       	brcs	.+2      	; 0x140e <main+0x118>
    140c:	ae cf       	rjmp	.-164    	; 0x136a <main+0x74>
    140e:	b1 cf       	rjmp	.-158    	; 0x1372 <main+0x7c>

00001410 <_exit>:
    1410:	f8 94       	cli

00001412 <__stop_program>:
    1412:	ff cf       	rjmp	.-2      	; 0x1412 <__stop_program>
